target datalayout = "e-m:e-p270:32:32-p271:32:32-p272:64:64-i64:64-i128:128-f80:128-n8:16:32:64-S128"
target triple = "x86_64-pc-linux-gnu"

%struct.Py_complex = type { double, double }

; Function Attrs: nounwind uwtable
define dso_local { double, double } @_Py_cr_quot(double %0, double %1, double noundef %2) #0 {
  %4 = alloca %struct.Py_complex, align 8
  %5 = alloca %struct.Py_complex, align 8
  %6 = alloca double, align 8
  %7 = getelementptr inbounds nuw { double, double }, ptr %5, i32 0, i32 0
  store double %0, ptr %7, align 8
  %8 = getelementptr inbounds nuw { double, double }, ptr %5, i32 0, i32 1
  store double %1, ptr %8, align 8
  store double %2, ptr %6, align 8, !tbaa !10
  call void @llvm.memcpy.p0.p0.i64(ptr align 8 %4, ptr align 8 %5, i64 16, i1 false), !tbaa.struct !11
  %9 = load double, ptr %6, align 8, !tbaa !10
  %10 = fcmp une double %9, 0.000000e+00
  br i1 %10, label %11, label %20

11:                                               ; preds = %3
  %12 = load double, ptr %6, align 8, !tbaa !10
  %13 = getelementptr inbounds nuw %struct.Py_complex, ptr %4, i32 0, i32 0
  %14 = load double, ptr %13, align 8, !tbaa !4
  %15 = fdiv double %14, %12
  store double %15, ptr %13, align 8, !tbaa !4
  %16 = load double, ptr %6, align 8, !tbaa !10
  %17 = getelementptr inbounds nuw %struct.Py_complex, ptr %4, i32 0, i32 1
  %18 = load double, ptr %17, align 8, !tbaa !9
  %19 = fdiv double %18, %16
  store double %19, ptr %17, align 8, !tbaa !9
  br label %24

20:                                               ; preds = %3
  %21 = call ptr @__errno_location() #11
  store i32 33, ptr %21, align 4, !tbaa !12
  %22 = getelementptr inbounds nuw %struct.Py_complex, ptr %4, i32 0, i32 1
  store double 0.000000e+00, ptr %22, align 8, !tbaa !9
  %23 = getelementptr inbounds nuw %struct.Py_complex, ptr %4, i32 0, i32 0
  store double 0.000000e+00, ptr %23, align 8, !tbaa !4
  br label %24

24:                                               ; preds = %20, %11
  %25 = load { double, double }, ptr %4, align 8
  ret { double, double } %25
}