; Function Attrs: mustprogress nofree nosync nounwind willreturn memory(write, inaccessiblemem: none) uwtable
define dso_local { double, double } @_Py_cr_quot(double %0, double %1, double noundef %2) local_unnamed_addr #4 {
  %4 = fcmp une double %2, 0.000000e+00
  br i1 %4, label %5, label %8

5:                                                ; preds = %3
  %6 = fdiv double %0, %2
  %7 = fdiv double %1, %2
  br label %10

8:                                                ; preds = %3
  %9 = tail call ptr @__errno_location() #15
  store i32 33, ptr %9, align 4, !tbaa !4
  br label %10

10:                                               ; preds = %8, %5
  %.sroa.03.0 = phi double [ %6, %5 ], [ 0.000000e+00, %8 ]
  %.sroa.5.0 = phi double [ %7, %5 ], [ 0.000000e+00, %8 ]
  %.fca.0.insert = insertvalue { double, double } poison, double %.sroa.03.0, 0
  %.fca.1.insert = insertvalue { double, double } %.fca.0.insert, double %.sroa.5.0, 1
  ret { double, double } %.fca.1.insert
}